target datalayout = "e-m:e-p270:32:32-p271:32:32-p272:64:64-i64:64-i128:128-f80:128-n8:16:32:64-S128"
target triple = "x86_64-pc-linux-gnu"

%struct.BuildCtx = type { ptr, i32, ptr, ptr, ptr, ptr, i64, i32, i32, i32, i32, i32, ptr, ptr, ptr, ptr, ptr, ptr, ptr, ptr, ptr, [200 x %struct.BuildReloc] }
%struct.BuildReloc = type { i32, i32, i32 }
%struct.dasm_State = type { i64, ptr, ptr, i64, ptr, i64, ptr, ptr, i64, i32, i32, [1 x %struct.dasm_Section] }
%struct.dasm_Section = type { ptr, ptr, i64, i32, i32, i32 }

; Function Attrs: nounwind uwtable
define dso_local void @dasm_free(ptr noundef %0) #0 {
  %2 = alloca ptr, align 8
  %3 = alloca ptr, align 8
  %4 = alloca i32, align 4
  store ptr %0, ptr %2, align 8, !tbaa !4
  call void @llvm.lifetime.start.p0(i64 8, ptr %3) #12
  %5 = load ptr, ptr %2, align 8, !tbaa !4
  %6 = getelementptr inbounds nuw %struct.BuildCtx, ptr %5, i32 0, i32 0
  %7 = load ptr, ptr %6, align 8, !tbaa !13
  store ptr %7, ptr %3, align 8, !tbaa !23
  call void @llvm.lifetime.start.p0(i64 4, ptr %4) #12
  store i32 0, ptr %4, align 4, !tbaa !9
  br label %8

8:                                                ; preds = %32, %1
  %9 = load i32, ptr %4, align 4, !tbaa !9
  %10 = load ptr, ptr %3, align 8, !tbaa !23
  %11 = getelementptr inbounds nuw %struct.dasm_State, ptr %10, i32 0, i32 9
  %12 = load i32, ptr %11, align 8, !tbaa !32
  %13 = icmp slt i32 %9, %12
  br i1 %13, label %14, label %35

14:                                               ; preds = %8
  %15 = load ptr, ptr %3, align 8, !tbaa !23
  %16 = getelementptr inbounds nuw %struct.dasm_State, ptr %15, i32 0, i32 11
  %17 = load i32, ptr %4, align 4, !tbaa !9
  %18 = sext i32 %17 to i64
  %19 = getelementptr inbounds [1 x %struct.dasm_Section], ptr %16, i64 0, i64 %18
  %20 = getelementptr inbounds nuw %struct.dasm_Section, ptr %19, i32 0, i32 1
  %21 = load ptr, ptr %20, align 8, !tbaa !33
  %22 = icmp ne ptr %21, null
  br i1 %22, label %23, label %31

23:                                               ; preds = %14
  %24 = load ptr, ptr %3, align 8, !tbaa !23
  %25 = getelementptr inbounds nuw %struct.dasm_State, ptr %24, i32 0, i32 11
  %26 = load i32, ptr %4, align 4, !tbaa !9
  %27 = sext i32 %26 to i64
  %28 = getelementptr inbounds [1 x %struct.dasm_Section], ptr %25, i64 0, i64 %27
  %29 = getelementptr inbounds nuw %struct.dasm_Section, ptr %28, i32 0, i32 1
  %30 = load ptr, ptr %29, align 8, !tbaa !33
  call void @free(ptr noundef %30) #12
  br label %31

31:                                               ; preds = %23, %14
  br label %32

32:                                               ; preds = %31
  %33 = load i32, ptr %4, align 4, !tbaa !9
  %34 = add nsw i32 %33, 1
  store i32 %34, ptr %4, align 4, !tbaa !9
  br label %8, !llvm.loop !35

35:                                               ; preds = %8
  %36 = load ptr, ptr %3, align 8, !tbaa !23
  %37 = getelementptr inbounds nuw %struct.dasm_State, ptr %36, i32 0, i32 4
  %38 = load ptr, ptr %37, align 8, !tbaa !29
  %39 = icmp ne ptr %38, null
  br i1 %39, label %40, label %44

40:                                               ; preds = %35
  %41 = load ptr, ptr %3, align 8, !tbaa !23
  %42 = getelementptr inbounds nuw %struct.dasm_State, ptr %41, i32 0, i32 4
  %43 = load ptr, ptr %42, align 8, !tbaa !29
  call void @free(ptr noundef %43) #12
  br label %44

44:                                               ; preds = %40, %35
  %45 = load ptr, ptr %3, align 8, !tbaa !23
  %46 = getelementptr inbounds nuw %struct.dasm_State, ptr %45, i32 0, i32 2
  %47 = load ptr, ptr %46, align 8, !tbaa !27
  %48 = icmp ne ptr %47, null
  br i1 %48, label %49, label %53

49:                                               ; preds = %44
  %50 = load ptr, ptr %3, align 8, !tbaa !23
  %51 = getelementptr inbounds nuw %struct.dasm_State, ptr %50, i32 0, i32 2
  %52 = load ptr, ptr %51, align 8, !tbaa !27
  call void @free(ptr noundef %52) #12
  br label %53

53:                                               ; preds = %49, %44
  %54 = load ptr, ptr %3, align 8, !tbaa !23
  call void @free(ptr noundef %54) #12
  call void @llvm.lifetime.end.p0(i64 4, ptr %4) #12
  call void @llvm.lifetime.end.p0(i64 8, ptr %3) #12
  ret void
}